; ModuleID = 'source-C-CXX/13/1370.c'
source_filename = "source-C-CXX/13/1370.c"
target datalayout = "e-m:e-p270:32:32-p271:32:32-p272:64:64-i64:64-f80:128-n8:16:32:64-S128"
target triple = "x86_64-pc-linux-gnu"

%struct.score = type { i32, i32, i32, i32 }

@.str = private unnamed_addr constant [3 x i8] c"%d\00", align 1
@.str.1 = private unnamed_addr constant [7 x i8] c"%d%d%d\00", align 1
@.str.2 = private unnamed_addr constant [19 x i8] c"%d %d\0A%d %d\0A%d %d\0A\00", align 1

; Function Attrs: nofree nounwind sspstrong uwtable
define dso_local i32 @main() local_unnamed_addr #0 {
  %1 = alloca [5 x %struct.score], align 16
  %2 = alloca i32, align 4
  %3 = bitcast [5 x %struct.score]* %1 to i8*
  call void @llvm.lifetime.start.p0i8(i64 80, i8* nonnull %3) #4
  %4 = bitcast i32* %2 to i8*
  call void @llvm.lifetime.start.p0i8(i64 4, i8* nonnull %4) #4
  %5 = call i32 (i8*, ...) @__isoc99_scanf(i8* getelementptr inbounds ([3 x i8], [3 x i8]* @.str, i64 0, i64 0), i32* nonnull %2)
  %6 = getelementptr inbounds [5 x %struct.score], [5 x %struct.score]* %1, i64 0, i64 1
  %7 = getelementptr inbounds %struct.score, %struct.score* %6, i64 0, i32 0
  store i32 0, i32* %7, align 16, !tbaa !5
  %8 = getelementptr inbounds [5 x %struct.score], [5 x %struct.score]* %1, i64 0, i64 1, i32 3
  store i32 0, i32* %8, align 4, !tbaa !10
  %9 = getelementptr inbounds [5 x %struct.score], [5 x %struct.score]* %1, i64 0, i64 2
  %10 = getelementptr inbounds %struct.score, %struct.score* %9, i64 0, i32 0
  store i32 0, i32* %10, align 16, !tbaa !5
  %11 = getelementptr inbounds [5 x %struct.score], [5 x %struct.score]* %1, i64 0, i64 2, i32 3
  store i32 0, i32* %11, align 4, !tbaa !10
  %12 = getelementptr inbounds [5 x %struct.score], [5 x %struct.score]* %1, i64 0, i64 3
  %13 = getelementptr inbounds %struct.score, %struct.score* %12, i64 0, i32 0
  store i32 0, i32* %13, align 16, !tbaa !5
  %14 = getelementptr inbounds [5 x %struct.score], [5 x %struct.score]* %1, i64 0, i64 3, i32 3
  store i32 0, i32* %14, align 4, !tbaa !10
  %15 = getelementptr inbounds [5 x %struct.score], [5 x %struct.score]* %1, i64 0, i64 4
  %16 = getelementptr inbounds %struct.score, %struct.score* %15, i64 0, i32 0
  %17 = getelementptr inbounds [5 x %struct.score], [5 x %struct.score]* %1, i64 0, i64 4, i32 1
  %18 = getelementptr inbounds [5 x %struct.score], [5 x %struct.score]* %1, i64 0, i64 4, i32 2
  %19 = getelementptr inbounds [5 x %struct.score], [5 x %struct.score]* %1, i64 0, i64 4, i32 3
  %20 = bitcast %struct.score* %12 to i8*
  %21 = bitcast %struct.score* %15 to i8*
  %22 = bitcast %struct.score* %9 to i8*
  %23 = bitcast %struct.score* %6 to i8*
  %24 = load i32, i32* %2, align 4, !tbaa !11
  %25 = icmp sgt i32 %24, 0
  br i1 %25, label %26, label %55

26:                                               ; preds = %0, %44
  %27 = phi i32 [ %45, %44 ], [ 0, %0 ]
  %28 = call i32 (i8*, ...) @__isoc99_scanf(i8* getelementptr inbounds ([7 x i8], [7 x i8]* @.str.1, i64 0, i64 0), i32* nonnull %16, i32* nonnull %17, i32* nonnull %18)
  %29 = load i32, i32* %17, align 4, !tbaa !12
  %30 = load i32, i32* %18, align 8, !tbaa !13
  %31 = add nsw i32 %30, %29
  store i32 %31, i32* %19, align 4, !tbaa !10
  %32 = load i32, i32* %8, align 4, !tbaa !10
  %33 = icmp sgt i32 %31, %32
  br i1 %33, label %34, label %35

34:                                               ; preds = %26
  call void @llvm.memcpy.p0i8.p0i8.i64(i8* noundef nonnull align 16 dereferenceable(16) %20, i8* noundef nonnull align 16 dereferenceable(16) %22, i64 16, i1 false), !tbaa.struct !14
  call void @llvm.memcpy.p0i8.p0i8.i64(i8* noundef nonnull align 16 dereferenceable(16) %22, i8* noundef nonnull align 16 dereferenceable(16) %23, i64 16, i1 false), !tbaa.struct !14
  br label %42

35:                                               ; preds = %26
  %36 = load i32, i32* %11, align 4, !tbaa !10
  %37 = icmp sgt i32 %31, %36
  br i1 %37, label %38, label %39

38:                                               ; preds = %35
  call void @llvm.memcpy.p0i8.p0i8.i64(i8* noundef nonnull align 16 dereferenceable(16) %20, i8* noundef nonnull align 16 dereferenceable(16) %22, i64 16, i1 false), !tbaa.struct !14
  br label %42

39:                                               ; preds = %35
  %40 = load i32, i32* %14, align 4, !tbaa !10
  %41 = icmp sgt i32 %31, %40
  br i1 %41, label %42, label %44

42:                                               ; preds = %39, %38, %34
  %43 = phi i8* [ %23, %34 ], [ %22, %38 ], [ %20, %39 ]
  call void @llvm.memcpy.p0i8.p0i8.i64(i8* noundef nonnull align 16 dereferenceable(16) %43, i8* noundef nonnull align 16 dereferenceable(16) %21, i64 16, i1 false)
  br label %44

44:                                               ; preds = %42, %39
  %45 = add nuw nsw i32 %27, 1
  %46 = load i32, i32* %2, align 4, !tbaa !11
  %47 = icmp slt i32 %45, %46
  br i1 %47, label %26, label %48, !llvm.loop !15

48:                                               ; preds = %44
  %49 = load i32, i32* %7, align 16, !tbaa !5
  %50 = load i32, i32* %8, align 4, !tbaa !10
  %51 = load i32, i32* %10, align 16, !tbaa !5
  %52 = load i32, i32* %11, align 4, !tbaa !10
  %53 = load i32, i32* %13, align 16, !tbaa !5
  %54 = load i32, i32* %14, align 4, !tbaa !10
  br label %55

55:                                               ; preds = %48, %0
  %56 = phi i32 [ %54, %48 ], [ 0, %0 ]
  %57 = phi i32 [ %53, %48 ], [ 0, %0 ]
  %58 = phi i32 [ %52, %48 ], [ 0, %0 ]
  %59 = phi i32 [ %51, %48 ], [ 0, %0 ]
  %60 = phi i32 [ %50, %48 ], [ 0, %0 ]
  %61 = phi i32 [ %49, %48 ], [ 0, %0 ]
  %62 = call i32 (i8*, ...) @printf(i8* nonnull dereferenceable(1) getelementptr inbounds ([19 x i8], [19 x i8]* @.str.2, i64 0, i64 0), i32 %61, i32 %60, i32 %59, i32 %58, i32 %57, i32 %56)
  call void @llvm.lifetime.end.p0i8(i64 4, i8* nonnull %4) #4
  call void @llvm.lifetime.end.p0i8(i64 80, i8* nonnull %3) #4
  ret i32 0
}

; Function Attrs: argmemonly mustprogress nofree nosync nounwind willreturn
declare void @llvm.lifetime.start.p0i8(i64 immarg, i8* nocapture) #1

; Function Attrs: nofree nounwind
declare noundef i32 @__isoc99_scanf(i8* nocapture noundef readonly, ...) local_unnamed_addr #2

; Function Attrs: argmemonly mustprogress nofree nounwind willreturn
declare void @llvm.memcpy.p0i8.p0i8.i64(i8* noalias nocapture writeonly, i8* noalias nocapture readonly, i64, i1 immarg) #3

; Function Attrs: nofree nounwind
declare noundef i32 @printf(i8* nocapture noundef readonly, ...) local_unnamed_addr #2

; Function Attrs: argmemonly mustprogress nofree nosync nounwind willreturn
declare void @llvm.lifetime.end.p0i8(i64 immarg, i8* nocapture) #1


!llvm.module.flags = !{!0, !1, !2, !3}
!llvm.ident = !{!4}

!0 = !{i32 1, !"wchar_size", i32 4}
!1 = !{i32 7, !"PIC Level", i32 2}
!2 = !{i32 7, !"PIE Level", i32 2}
!3 = !{i32 7, !"uwtable", i32 1}
!4 = !{!"clang version 13.0.0"}
!5 = !{!6, !7, i64 0}
!6 = !{!"score", !7, i64 0, !7, i64 4, !7, i64 8, !7, i64 12}
!7 = !{!"int", !8, i64 0}
!8 = !{!"omnipotent char", !9, i64 0}
!9 = !{!"Simple C/C++ TBAA"}
!10 = !{!6, !7, i64 12}
!11 = !{!7, !7, i64 0}
!12 = !{!6, !7, i64 4}
!13 = !{!6, !7, i64 8}
!14 = !{i64 0, i64 4, !11, i64 4, i64 4, !11, i64 8, i64 4, !11, i64 12, i64 4, !11}
!15 = distinct !{!15, !16}
!16 = !{!"llvm.loop.mustprogress"}
